; Function Attrs: mustprogress uwtable
define void @_ZN9CryptData17SetAV15EncryptionEv(ptr noundef nonnull align 8 dereferenceable(2516) %0) local_unnamed_addr #1 align 2 {
  %2 = getelementptr inbounds nuw i8, ptr %0, i64 1208
  tail call void @_Z9InitCRC32Pj(ptr noundef nonnull %2)
  %3 = getelementptr inbounds nuw i8, ptr %0, i64 940
  store i32 2, ptr %3, align 4
  %4 = getelementptr inbounds nuw i8, ptr %0, i64 2508
  store i16 18277, ptr %4, align 4
  %5 = getelementptr inbounds nuw i8, ptr %0, i64 2510
  store i16 -28639, ptr %5, align 2
  %6 = getelementptr inbounds nuw i8, ptr %0, i64 2512
  store i16 29570, ptr %6, align 8
  %7 = getelementptr inbounds nuw i8, ptr %0, i64 2514
  store i16 21013, ptr %7, align 2
  ret void
}